; Function Attrs: mustprogress uwtable
define hidden noundef nonnull align 8 dereferenceable(8) ptr @_ZNK6spacer3pob7displayERSob(ptr noundef nonnull align 8 dereferenceable(152) %0, ptr noundef nonnull returned align 8 dereferenceable(8) %1, i1 noundef zeroext %2) local_unnamed_addr #3 align 2 {
  %4 = getelementptr inbounds nuw i8, ptr %0, i64 16
  %5 = load ptr, ptr %4, align 8, !tbaa !111
  %6 = getelementptr inbounds nuw i8, ptr %5, i64 24
  %7 = load ptr, ptr %6, align 8, !tbaa !161
  %8 = getelementptr inbounds nuw i8, ptr %7, i64 16
  %.sroa.0.0.copyload = load ptr, ptr %8, align 8, !tbaa !162
  %9 = ptrtoint ptr %.sroa.0.0.copyload to i64
  %10 = and i64 %9, 7
  %11 = icmp eq i64 %10, 0
  br i1 %11, label %12, label %17

12:                                               ; preds = %3
  %.not.i = icmp eq ptr %.sroa.0.0.copyload, null
  br i1 %.not.i, label %15, label %_ZStlsISt11char_traitsIcEERSt13basic_ostreamIcT_ES5_PKc.exit.i

_ZStlsISt11char_traitsIcEERSt13basic_ostreamIcT_ES5_PKc.exit.i: ; preds = %12
  %13 = tail call noundef i64 @strlen(ptr noundef nonnull dereferenceable(1) %.sroa.0.0.copyload) #28
  %14 = tail call noundef nonnull align 8 dereferenceable(8) ptr @_ZSt16__ostream_insertIcSt11char_traitsIcEERSt13basic_ostreamIT_T0_ES6_PKS3_l(ptr noundef nonnull align 8 dereferenceable(8) %1, ptr noundef nonnull %.sroa.0.0.copyload, i64 noundef %13)
  br label %_ZlsRSo6symbol.exit

15:                                               ; preds = %12
  %16 = tail call noundef nonnull align 8 dereferenceable(8) ptr @_ZSt16__ostream_insertIcSt11char_traitsIcEERSt13basic_ostreamIT_T0_ES6_PKS3_l(ptr noundef nonnull align 8 dereferenceable(8) %1, ptr noundef nonnull @.str.143, i64 noundef 4)
  br label %_ZlsRSo6symbol.exit

17:                                               ; preds = %3
  %18 = tail call noundef nonnull align 8 dereferenceable(8) ptr @_ZSt16__ostream_insertIcSt11char_traitsIcEERSt13basic_ostreamIT_T0_ES6_PKS3_l(ptr noundef nonnull align 8 dereferenceable(8) %1, ptr noundef nonnull @.str.144, i64 noundef 2)
  %19 = lshr i64 %9, 3
  %20 = trunc i64 %19 to i32
  %21 = tail call noundef nonnull align 8 dereferenceable(8) ptr @_ZNSolsEi(ptr noundef nonnull align 8 dereferenceable(8) %1, i32 noundef %20)
  br label %_ZlsRSo6symbol.exit

_ZlsRSo6symbol.exit:                              ; preds = %_ZStlsISt11char_traitsIcEERSt13basic_ostreamIcT_ES5_PKc.exit.i, %15, %17
  %22 = tail call noundef nonnull align 8 dereferenceable(8) ptr @_ZSt16__ostream_insertIcSt11char_traitsIcEERSt13basic_ostreamIT_T0_ES6_PKS3_l(ptr noundef nonnull align 8 dereferenceable(8) %1, ptr noundef nonnull @.str, i64 noundef 8)
  %23 = getelementptr inbounds nuw i8, ptr %0, i64 72
  %24 = load i64, ptr %23, align 8
  %25 = and i64 %24, 65535
  %26 = tail call noundef nonnull align 8 dereferenceable(8) ptr @_ZNSo9_M_insertImEERSoT_(ptr noundef nonnull align 8 dereferenceable(8) %1, i64 noundef %25)
  %27 = tail call noundef nonnull align 8 dereferenceable(8) ptr @_ZSt16__ostream_insertIcSt11char_traitsIcEERSt13basic_ostreamIT_T0_ES6_PKS3_l(ptr noundef nonnull align 8 dereferenceable(8) %26, ptr noundef nonnull @.str.1, i64 noundef 8)
  %28 = load i64, ptr %23, align 8
  %29 = lshr i64 %28, 16
  %30 = and i64 %29, 65535
  %31 = tail call noundef nonnull align 8 dereferenceable(8) ptr @_ZNSo9_M_insertImEERSoT_(ptr noundef nonnull align 8 dereferenceable(8) %26, i64 noundef %30)
  %32 = tail call noundef nonnull align 8 dereferenceable(8) ptr @_ZSt16__ostream_insertIcSt11char_traitsIcEERSt13basic_ostreamIT_T0_ES6_PKS3_l(ptr noundef nonnull align 8 dereferenceable(8) %31, ptr noundef nonnull @.str.2, i64 noundef 10)
  %33 = getelementptr inbounds nuw i8, ptr %0, i64 24
  %34 = load ptr, ptr %33, align 8, !tbaa !93
  %35 = load i32, ptr %34, align 4, !tbaa !164
  %36 = zext i32 %35 to i64
  %37 = tail call noundef nonnull align 8 dereferenceable(8) ptr @_ZNSo9_M_insertImEERSoT_(ptr noundef nonnull align 8 dereferenceable(8) %31, i64 noundef %36)
  %38 = load i64, ptr %23, align 8
  %39 = and i64 %38, 1125899906842624
  %.not = icmp eq i64 %39, 0
  %40 = select i1 %.not, ptr @.str.4, ptr @.str.3
  %41 = select i1 %.not, i64 0, i64 9
  %42 = tail call noundef nonnull align 8 dereferenceable(8) ptr @_ZSt16__ostream_insertIcSt11char_traitsIcEERSt13basic_ostreamIT_T0_ES6_PKS3_l(ptr noundef nonnull align 8 dereferenceable(8) %37, ptr noundef nonnull %40, i64 noundef %41)
  br i1 %2, label %43, label %46

43:                                               ; preds = %_ZlsRSo6symbol.exit
  %44 = tail call noundef nonnull align 8 dereferenceable(8) ptr @_ZSt16__ostream_insertIcSt11char_traitsIcEERSt13basic_ostreamIT_T0_ES6_PKS3_l(ptr noundef nonnull align 8 dereferenceable(8) %1, ptr noundef nonnull @.str.5, i64 noundef 1)
  %45 = tail call noundef nonnull align 8 dereferenceable(8) ptr @_ZlsRSoRK7obj_refI4expr11ast_managerE(ptr noundef nonnull align 8 dereferenceable(8) %1, ptr noundef nonnull align 8 dereferenceable(16) %33)
  br label %46

46:                                               ; preds = %43, %_ZlsRSo6symbol.exit
  ret ptr %1
}